; Function Attrs: mustprogress nounwind uwtable
define void @umutablecptrie_close_77(ptr noundef %0) local_unnamed_addr #3 personality ptr @__gxx_personality_v0 {
  %2 = icmp eq ptr %0, null
  br i1 %2, label %14, label %3

3:                                                ; preds = %1
  %4 = load ptr, ptr %0, align 8, !tbaa !7
  invoke void @uprv_free_77(ptr noundef %4)
          to label %5 unwind label %11

5:                                                ; preds = %3
  %6 = getelementptr inbounds nuw i8, ptr %0, i64 16
  %7 = load ptr, ptr %6, align 8, !tbaa !22
  invoke void @uprv_free_77(ptr noundef %7)
          to label %8 unwind label %11

8:                                                ; preds = %5
  %9 = getelementptr inbounds nuw i8, ptr %0, i64 56
  %10 = load ptr, ptr %9, align 8, !tbaa !21
  invoke void @uprv_free_77(ptr noundef %10)
          to label %_ZN6icu_7712_GLOBAL__N_120MutableCodePointTrieD2Ev.exit unwind label %11

11:                                               ; preds = %8, %5, %3
  %12 = landingpad { ptr, i32 }
          catch ptr null
  %13 = extractvalue { ptr, i32 } %12, 0
  tail call void @__clang_call_terminate(ptr %13) #15
  unreachable

_ZN6icu_7712_GLOBAL__N_120MutableCodePointTrieD2Ev.exit: ; preds = %8
  tail call void @_ZN6icu_777UMemorydlEPv(ptr noundef nonnull %0) #13
  br label %14

14:                                               ; preds = %_ZN6icu_7712_GLOBAL__N_120MutableCodePointTrieD2Ev.exit, %1
  ret void
}